; Function Attrs: mustprogress nounwind uwtable
define hidden void @_ZN14KlassInfoHistoC2EP14KlassInfoTable(ptr nocapture noundef nonnull writeonly align 8 dereferenceable(16) %0, ptr noundef %1) unnamed_addr #0 align 2 {
  store ptr %1, ptr %0, align 8
  %3 = tail call noundef ptr @_ZN6AnyObjnwEm8MEMFLAGS(i64 noundef 24, i8 noundef zeroext 23) #15
  %4 = icmp eq ptr %3, null
  br i1 %4, label %10, label %5

5:                                                ; preds = %2
  %6 = tail call noundef ptr @_ZN27GrowableArrayCHeapAllocator8allocateEii8MEMFLAGS(i32 noundef 1000, i32 noundef 8, i8 noundef zeroext 23) #15
  store i32 0, ptr %3, align 4
  %7 = getelementptr inbounds i8, ptr %3, i64 4
  store i32 1000, ptr %7, align 4
  %8 = getelementptr inbounds i8, ptr %3, i64 8
  store ptr %6, ptr %8, align 8
  tail call void @llvm.memset.p0.i64(ptr noundef nonnull align 8 dereferenceable(8000) %6, i8 0, i64 8000, i1 false)
  %9 = getelementptr inbounds i8, ptr %3, i64 16
  store i64 47, ptr %9, align 8
  br label %10

10:                                               ; preds = %5, %2
  %11 = getelementptr inbounds i8, ptr %0, i64 8
  store ptr %3, ptr %11, align 8
  ret void
}